target datalayout = "e-m:e-p270:32:32-p271:32:32-p272:64:64-i64:64-i128:128-f80:128-n8:16:32:64-S128"
target triple = "x86_64-pc-linux-gnu"

@.str.7 = private unnamed_addr constant [8 x i8] c"toggled\00", align 1
@.str.12 = private unnamed_addr constant [19 x i8] c"button-press-event\00", align 1
@.str.501 = private unnamed_addr constant [7 x i8] c"halign\00", align 1
@.str.502 = private unnamed_addr constant [7 x i8] c"xalign\00", align 1
@.str.503 = private unnamed_addr constant [10 x i8] c"ellipsize\00", align 1

; Function Attrs: inlinehint nounwind uwtable
define internal ptr @dt_ui_label_new(ptr noundef %0) #7 {
  %2 = alloca ptr, align 8
  %3 = alloca ptr, align 8
  store ptr %0, ptr %2, align 8, !tbaa !73
  call void @llvm.lifetime.start.p0(i64 8, ptr %3) #10
  %4 = load ptr, ptr %2, align 8, !tbaa !73
  %5 = call ptr @gtk_label_new(ptr noundef %4)
  store ptr %5, ptr %3, align 8, !tbaa !6
  %6 = load ptr, ptr %3, align 8, !tbaa !6
  call void (ptr, ptr, ...) @g_object_set(ptr noundef %6, ptr noundef @.str.501, i32 noundef 1, ptr noundef @.str.502, double noundef 0.000000e+00, ptr noundef @.str.503, i32 noundef 3, ptr noundef null)
  %7 = load ptr, ptr %3, align 8, !tbaa !6
  call void @llvm.lifetime.end.p0(i64 8, ptr %3) #10
  ret ptr %7
}

; Function Attrs: nounwind uwtable
define ptr @dt_gui_preferences_bool(ptr noundef %0, ptr noundef %1, i32 noundef %2, i32 noundef %3, i32 noundef %4) #0 {
  %6 = alloca ptr, align 8
  %7 = alloca ptr, align 8
  %8 = alloca i32, align 4
  %9 = alloca i32, align 4
  %10 = alloca i32, align 4
  %11 = alloca ptr, align 8
  %12 = alloca ptr, align 8
  %13 = alloca ptr, align 8
  store ptr %0, ptr %6, align 8, !tbaa !111
  store ptr %1, ptr %7, align 8, !tbaa !73
  store i32 %2, ptr %8, align 4, !tbaa !57
  store i32 %3, ptr %9, align 4, !tbaa !57
  store i32 %4, ptr %10, align 4, !tbaa !57
  call void @llvm.lifetime.start.p0(i64 8, ptr %11) #10
  %14 = load ptr, ptr %7, align 8, !tbaa !73
  %15 = call ptr @dt_confgen_get_label(ptr noundef %14)
  %16 = call ptr @dcgettext(ptr noundef null, ptr noundef %15, i32 noundef 5) #10
  %17 = call ptr @dt_ui_label_new(ptr noundef %16)
  store ptr %17, ptr %11, align 8, !tbaa !6
  %18 = load ptr, ptr %11, align 8, !tbaa !6
  %19 = load ptr, ptr %7, align 8, !tbaa !73
  %20 = call ptr @dt_confgen_get_tooltip(ptr noundef %19)
  %21 = call ptr @dcgettext(ptr noundef null, ptr noundef %20, i32 noundef 5) #10
  call void @gtk_widget_set_tooltip_text(ptr noundef %18, ptr noundef %21)
  call void @llvm.lifetime.start.p0(i64 8, ptr %12) #10
  %22 = call ptr @gtk_event_box_new()
  store ptr %22, ptr %12, align 8, !tbaa !6
  %23 = load ptr, ptr %12, align 8, !tbaa !6
  call void @gtk_widget_add_events(ptr noundef %23, i32 noundef 256)
  %24 = load ptr, ptr %12, align 8, !tbaa !6
  %25 = call i64 @gtk_container_get_type() #11
  %26 = call ptr @g_type_check_instance_cast(ptr noundef %24, i64 noundef %25)
  %27 = load ptr, ptr %11, align 8, !tbaa !6
  call void @gtk_container_add(ptr noundef %26, ptr noundef %27)
  call void @llvm.lifetime.start.p0(i64 8, ptr %13) #10
  %28 = call ptr @gtk_check_button_new()
  store ptr %28, ptr %13, align 8, !tbaa !6
  %29 = load ptr, ptr %13, align 8, !tbaa !6
  %30 = load ptr, ptr %7, align 8, !tbaa !73
  call void @gtk_widget_set_name(ptr noundef %29, ptr noundef %30)
  %31 = load ptr, ptr %13, align 8, !tbaa !6
  %32 = call i64 @gtk_toggle_button_get_type() #11
  %33 = call ptr @g_type_check_instance_cast(ptr noundef %31, i64 noundef %32)
  %34 = load ptr, ptr %7, align 8, !tbaa !73
  %35 = call i32 @dt_conf_get_bool(ptr noundef %34)
  call void @gtk_toggle_button_set_active(ptr noundef %33, i32 noundef %35)
  %36 = load ptr, ptr %6, align 8, !tbaa !111
  %37 = call i64 @gtk_grid_get_type() #11
  %38 = call ptr @g_type_check_instance_cast(ptr noundef %36, i64 noundef %37)
  %39 = load ptr, ptr %12, align 8, !tbaa !6
  %40 = load i32, ptr %10, align 4, !tbaa !57
  %41 = icmp ne i32 %40, 0
  br i1 %41, label %42, label %45

42:                                               ; preds = %5
  %43 = load i32, ptr %8, align 4, !tbaa !57
  %44 = add i32 %43, 1
  br label %47

45:                                               ; preds = %5
  %46 = load i32, ptr %8, align 4, !tbaa !57
  br label %47

47:                                               ; preds = %45, %42
  %48 = phi i32 [ %44, %42 ], [ %46, %45 ]
  %49 = load i32, ptr %9, align 4, !tbaa !57
  call void @gtk_grid_attach(ptr noundef %38, ptr noundef %39, i32 noundef %48, i32 noundef %49, i32 noundef 1, i32 noundef 1)
  %50 = load ptr, ptr %6, align 8, !tbaa !111
  %51 = call i64 @gtk_grid_get_type() #11
  %52 = call ptr @g_type_check_instance_cast(ptr noundef %50, i64 noundef %51)
  %53 = load ptr, ptr %13, align 8, !tbaa !6
  %54 = load i32, ptr %10, align 4, !tbaa !57
  %55 = icmp ne i32 %54, 0
  br i1 %55, label %56, label %58

56:                                               ; preds = %47
  %57 = load i32, ptr %8, align 4, !tbaa !57
  br label %61

58:                                               ; preds = %47
  %59 = load i32, ptr %8, align 4, !tbaa !57
  %60 = add i32 %59, 1
  br label %61

61:                                               ; preds = %58, %56
  %62 = phi i32 [ %57, %56 ], [ %60, %58 ]
  %63 = load i32, ptr %9, align 4, !tbaa !57
  call void @gtk_grid_attach(ptr noundef %52, ptr noundef %53, i32 noundef %62, i32 noundef %63, i32 noundef 1, i32 noundef 1)
  %64 = load ptr, ptr %13, align 8, !tbaa !6
  %65 = call ptr @g_type_check_instance_cast(ptr noundef %64, i64 noundef 80)
  %66 = load ptr, ptr %7, align 8, !tbaa !73
  %67 = call i64 @g_signal_connect_data(ptr noundef %65, ptr noundef @.str.7, ptr noundef @_gui_preferences_bool_callback, ptr noundef %66, ptr noundef null, i32 noundef 0)
  %68 = load ptr, ptr %12, align 8, !tbaa !6
  %69 = call ptr @g_type_check_instance_cast(ptr noundef %68, i64 noundef 80)
  %70 = load ptr, ptr %13, align 8, !tbaa !6
  %71 = call i64 @g_signal_connect_data(ptr noundef %69, ptr noundef @.str.12, ptr noundef @_gui_preferences_bool_reset, ptr noundef %70, ptr noundef null, i32 noundef 0)
  %72 = load ptr, ptr %13, align 8, !tbaa !6
  call void @llvm.lifetime.end.p0(i64 8, ptr %13) #10
  call void @llvm.lifetime.end.p0(i64 8, ptr %12) #10
  call void @llvm.lifetime.end.p0(i64 8, ptr %11) #10
  ret ptr %72
}