; Function Attrs: nounwind uwtable
define noundef ptr @dt_gui_preferences_bool(ptr noundef %0, ptr noundef %1, i32 noundef %2, i32 noundef %3, i32 noundef %4) local_unnamed_addr #0 {
  %6 = tail call ptr @dt_confgen_get_label(ptr noundef %1) #12
  %7 = tail call ptr @dcgettext(ptr noundef null, ptr noundef %6, i32 noundef 5) #12
  %8 = tail call ptr @gtk_label_new(ptr noundef %7) #12
  tail call void (ptr, ptr, ...) @g_object_set(ptr noundef %8, ptr noundef nonnull @.str.501, i32 noundef 1, ptr noundef nonnull @.str.502, double noundef 0.000000e+00, ptr noundef nonnull @.str.503, i32 noundef 3, ptr noundef null) #12
  %9 = tail call ptr @dt_confgen_get_tooltip(ptr noundef %1) #12
  %10 = tail call ptr @dcgettext(ptr noundef null, ptr noundef %9, i32 noundef 5) #12
  tail call void @gtk_widget_set_tooltip_text(ptr noundef %8, ptr noundef %10) #12
  %11 = tail call ptr @gtk_event_box_new() #12
  tail call void @gtk_widget_add_events(ptr noundef %11, i32 noundef 256) #12
  %12 = tail call i64 @gtk_container_get_type() #13
  %13 = tail call ptr @g_type_check_instance_cast(ptr noundef %11, i64 noundef %12) #12
  tail call void @gtk_container_add(ptr noundef %13, ptr noundef %8) #12
  %14 = tail call ptr @gtk_check_button_new() #12
  tail call void @gtk_widget_set_name(ptr noundef %14, ptr noundef %1) #12
  %15 = tail call i64 @gtk_toggle_button_get_type() #13
  %16 = tail call ptr @g_type_check_instance_cast(ptr noundef %14, i64 noundef %15) #12
  %17 = tail call i32 @dt_conf_get_bool(ptr noundef %1) #12
  tail call void @gtk_toggle_button_set_active(ptr noundef %16, i32 noundef %17) #12
  %18 = tail call i64 @gtk_grid_get_type() #13
  %19 = tail call ptr @g_type_check_instance_cast(ptr noundef %0, i64 noundef %18) #12
  %.not = icmp eq i32 %4, 0
  %20 = add i32 %2, 1
  %21 = select i1 %.not, i32 %2, i32 %20
  tail call void @gtk_grid_attach(ptr noundef %19, ptr noundef %11, i32 noundef %21, i32 noundef %3, i32 noundef 1, i32 noundef 1) #12
  %22 = tail call ptr @g_type_check_instance_cast(ptr noundef %0, i64 noundef %18) #12
  %23 = select i1 %.not, i32 %20, i32 %2
  tail call void @gtk_grid_attach(ptr noundef %22, ptr noundef %14, i32 noundef %23, i32 noundef %3, i32 noundef 1, i32 noundef 1) #12
  %24 = tail call ptr @g_type_check_instance_cast(ptr noundef %14, i64 noundef 80) #12
  %25 = tail call i64 @g_signal_connect_data(ptr noundef %24, ptr noundef nonnull @.str.7, ptr noundef nonnull @_gui_preferences_bool_callback, ptr noundef %1, ptr noundef null, i32 noundef 0) #12
  %26 = tail call ptr @g_type_check_instance_cast(ptr noundef %11, i64 noundef 80) #12
  %27 = tail call i64 @g_signal_connect_data(ptr noundef %26, ptr noundef nonnull @.str.12, ptr noundef nonnull @_gui_preferences_bool_reset, ptr noundef %14, ptr noundef null, i32 noundef 0) #12
  ret ptr %14
}